target datalayout = "e-m:e-p270:32:32-p271:32:32-p272:64:64-i64:64-i128:128-f80:128-n8:16:32:64-S128"
target triple = "x86_64-unknown-linux-gnu"

%"class.Assimp::CIOStreamWrapper" = type { %"class.Assimp::IOStream", ptr, ptr }
%"class.Assimp::IOStream" = type { ptr }
%struct.aiFile = type { ptr, ptr, ptr, ptr, ptr, ptr, ptr }

; Function Attrs: mustprogress uwtable
define hidden noundef i32 @_ZN6Assimp16CIOStreamWrapper4SeekEm8aiOrigin(ptr noundef nonnull align 8 dereferenceable(24) %this, i64 noundef %pOffset, i32 noundef %pOrigin) unnamed_addr #4 align 2 {
entry:
  %this.addr = alloca ptr, align 8
  %pOffset.addr = alloca i64, align 8
  %pOrigin.addr = alloca i32, align 4
  store ptr %this, ptr %this.addr, align 8
  store i64 %pOffset, ptr %pOffset.addr, align 8
  store i32 %pOrigin, ptr %pOrigin.addr, align 4
  %this1 = load ptr, ptr %this.addr, align 8
  %mFile = getelementptr inbounds %"class.Assimp::CIOStreamWrapper", ptr %this1, i32 0, i32 1
  %0 = load ptr, ptr %mFile, align 8
  %SeekProc = getelementptr inbounds %struct.aiFile, ptr %0, i32 0, i32 4
  %1 = load ptr, ptr %SeekProc, align 8
  %mFile2 = getelementptr inbounds %"class.Assimp::CIOStreamWrapper", ptr %this1, i32 0, i32 1
  %2 = load ptr, ptr %mFile2, align 8
  %3 = load i64, ptr %pOffset.addr, align 8
  %4 = load i32, ptr %pOrigin.addr, align 4
  %call = call noundef i32 %1(ptr noundef %2, i64 noundef %3, i32 noundef %4)
  ret i32 %call
}