; Function Attrs: mustprogress uwtable
define hidden noundef i32 @_ZN6Assimp16CIOStreamWrapper4SeekEm8aiOrigin(ptr nocapture noundef nonnull readonly align 8 dereferenceable(24) %this, i64 noundef %pOffset, i32 noundef %pOrigin) unnamed_addr #4 align 2 {
entry:
  %mFile = getelementptr inbounds i8, ptr %this, i64 8
  %0 = load ptr, ptr %mFile, align 8
  %SeekProc = getelementptr inbounds i8, ptr %0, i64 32
  %1 = load ptr, ptr %SeekProc, align 8
  %call = tail call noundef i32 %1(ptr noundef %0, i64 noundef %pOffset, i32 noundef %pOrigin)
  ret i32 %call
}